; Function Attrs: mustprogress nounwind uwtable
define dso_local void @_ZN4llvm4yaml6OutputC2ERNS_11raw_ostreamEPvi(ptr noundef nonnull align 8 dereferenceable(128) initializes((0, 28)) %0, ptr noundef nonnull align 8 dereferenceable(48) %1, ptr noundef %2, i32 noundef %3) unnamed_addr #6 align 2 {
  %5 = getelementptr inbounds nuw i8, ptr %0, i64 8
  store ptr %2, ptr %5, align 8
  store ptr getelementptr inbounds nuw inrange(-16, 264) (i8, ptr @_ZTVN4llvm4yaml6OutputE, i64 16), ptr %0, align 8
  %6 = getelementptr inbounds nuw i8, ptr %0, i64 16
  store ptr %1, ptr %6, align 8
  %7 = getelementptr inbounds nuw i8, ptr %0, i64 24
  store i32 %3, ptr %7, align 8
  %8 = getelementptr inbounds nuw i8, ptr %0, i64 32
  %9 = getelementptr inbounds nuw i8, ptr %0, i64 48
  tail call void @_ZN4llvm15SmallVectorBaseIjEC2EPvm(ptr noundef nonnull align 8 dereferenceable(48) %8, ptr noundef nonnull %9, i64 noundef 8) #32
  %10 = getelementptr inbounds nuw i8, ptr %0, i64 80
  tail call void @llvm.memset.p0.i64(ptr noundef nonnull align 8 dereferenceable(48) %10, i8 0, i64 48, i1 false)
  ret void
}